target datalayout = "e-m:e-p270:32:32-p271:32:32-p272:64:64-i64:64-i128:128-f80:128-n8:16:32:64-S128"
target triple = "x86_64-unknown-linux-gnu"

%"class.llvh::SMLoc" = type { ptr }
%"class.hermes::irgen::ESTreeIRGen" = type { ptr, %"class.hermes::IRBuilder", %"class.hermes::IRInstrument", ptr, ptr, ptr, ptr, %"class.hermes::ScopedHashTable", %"class.std::shared_ptr", %"class.hermes::Identifier", %"class.hermes::Identifier", %"class.hermes::Identifier", ptr, ptr, %"class.llvh::DenseMap.9" }
%"class.hermes::IRBuilder" = type { ptr, %"class.llvh::ilist_iterator", ptr, %"class.llvh::SMLoc", ptr }
%"class.llvh::ilist_iterator" = type { ptr }
%"class.hermes::IRInstrument" = type { i8 }
%"class.hermes::ScopedHashTable" = type { %"class.llvh::DenseMap", ptr }
%"class.llvh::DenseMap" = type <{ ptr, i32, i32, i32, [4 x i8] }>
%"class.std::shared_ptr" = type { %"class.std::__shared_ptr" }
%"class.std::__shared_ptr" = type { ptr, %"class.std::__shared_count" }
%"class.std::__shared_count" = type { ptr }
%"class.hermes::Identifier" = type { ptr }
%"class.llvh::DenseMap.9" = type <{ ptr, i32, i32, i32, [4 x i8] }>
%"class.llvh::StringRef" = type { ptr, i64 }
%"struct.hermes::irgen::ESTreeIRGen::IteratorRecord" = type { ptr, ptr }

@.str.21 = private unnamed_addr constant [5 x i8] c"iter\00", align 1
@.str.22 = private unnamed_addr constant [13 x i8] c"sourceOrNext\00", align 1

; Function Attrs: mustprogress nounwind uwtable
define linkonce_odr hidden noundef ptr @_ZN6hermes5irgen11ESTreeIRGen11curFunctionEv(ptr noundef nonnull align 8 dereferenceable(200) %this) #0 comdat align 2 {
entry:
  %this.addr = alloca ptr, align 8
  store ptr %this, ptr %this.addr, align 8
  %this1 = load ptr, ptr %this.addr, align 8
  %functionContext_ = getelementptr inbounds %"class.hermes::irgen::ESTreeIRGen", ptr %this1, i32 0, i32 6
  %0 = load ptr, ptr %functionContext_, align 8
  ret ptr %0
}

; Function Attrs: mustprogress nounwind uwtable
define linkonce_odr hidden ptr @_ZN6hermes5irgen11ESTreeIRGen21genAnonymousLabelNameEN4llvh9StringRefE(ptr noundef nonnull align 8 dereferenceable(200) %this, ptr %hint.coerce0, i64 %hint.coerce1) #0 comdat align 2 {
entry:
  %retval = alloca %"class.hermes::Identifier", align 8
  %hint = alloca %"class.llvh::StringRef", align 8
  %this.addr = alloca ptr, align 8
  %agg.tmp = alloca %"class.llvh::StringRef", align 8
  %0 = getelementptr inbounds { ptr, i64 }, ptr %hint, i32 0, i32 0
  store ptr %hint.coerce0, ptr %0, align 8
  %1 = getelementptr inbounds { ptr, i64 }, ptr %hint, i32 0, i32 1
  store i64 %hint.coerce1, ptr %1, align 8
  store ptr %this, ptr %this.addr, align 8
  %this1 = load ptr, ptr %this.addr, align 8
  %call = call noundef ptr @_ZN6hermes5irgen11ESTreeIRGen11curFunctionEv(ptr noundef nonnull align 8 dereferenceable(200) %this1)
  call void @llvm.memcpy.p0.p0.i64(ptr align 8 %agg.tmp, ptr align 8 %hint, i64 16, i1 false)
  %2 = getelementptr inbounds { ptr, i64 }, ptr %agg.tmp, i32 0, i32 0
  %3 = load ptr, ptr %2, align 8
  %4 = getelementptr inbounds { ptr, i64 }, ptr %agg.tmp, i32 0, i32 1
  %5 = load i64, ptr %4, align 8
  %call2 = call ptr @_ZN6hermes5irgen15FunctionContext21genAnonymousLabelNameEN4llvh9StringRefE(ptr noundef nonnull align 8 dereferenceable(480) %call, ptr %3, i64 %5)
  %coerce.dive = getelementptr inbounds %"class.hermes::Identifier", ptr %retval, i32 0, i32 0
  store ptr %call2, ptr %coerce.dive, align 8
  %coerce.dive3 = getelementptr inbounds %"class.hermes::Identifier", ptr %retval, i32 0, i32 0
  %6 = load ptr, ptr %coerce.dive3, align 8
  ret ptr %6
}

; Function Attrs: mustprogress nounwind uwtable
define hidden { ptr, ptr } @_ZN6hermes5irgen11ESTreeIRGen15emitGetIteratorEPNS_5ValueE(ptr noundef nonnull align 8 dereferenceable(200) %this, ptr noundef %obj) #0 align 2 {
entry:
  %this.addr.i20 = alloca ptr, align 8
  %Str.addr.i21 = alloca ptr, align 8
  %this.addr.i = alloca ptr, align 8
  %Str.addr.i = alloca ptr, align 8
  %retval = alloca %"struct.hermes::irgen::ESTreeIRGen::IteratorRecord", align 8
  %this.addr = alloca ptr, align 8
  %obj.addr = alloca ptr, align 8
  %iterStorage = alloca ptr, align 8
  %agg.tmp = alloca %"class.hermes::Identifier", align 8
  %agg.tmp2 = alloca %"class.llvh::StringRef", align 8
  %sourceOrNext = alloca ptr, align 8
  %agg.tmp6 = alloca %"class.hermes::Identifier", align 8
  %agg.tmp7 = alloca %"class.llvh::StringRef", align 8
  %iter = alloca ptr, align 8
  store ptr %this, ptr %this.addr, align 8
  store ptr %obj, ptr %obj.addr, align 8
  %this1 = load ptr, ptr %this.addr, align 8
  %Builder = getelementptr inbounds %"class.hermes::irgen::ESTreeIRGen", ptr %this1, i32 0, i32 1
  store ptr %agg.tmp2, ptr %this.addr.i, align 8
  store ptr @.str.21, ptr %Str.addr.i, align 8
  %this1.i = load ptr, ptr %this.addr.i, align 8
  %0 = load ptr, ptr %Str.addr.i, align 8
  store ptr %0, ptr %this1.i, align 8
  %Length.i = getelementptr inbounds %"class.llvh::StringRef", ptr %this1.i, i32 0, i32 1
  %1 = load ptr, ptr %Str.addr.i, align 8
  %tobool.i = icmp ne ptr %1, null
  br i1 %tobool.i, label %cond.true.i, label %cond.false.i

cond.true.i:                                      ; preds = %entry
  %2 = load ptr, ptr %Str.addr.i, align 8
  %call.i = call i64 @strlen(ptr noundef %2) #11
  br label %_ZN4llvh9StringRefC2EPKc.exit

cond.false.i:                                     ; preds = %entry
  br label %_ZN4llvh9StringRefC2EPKc.exit

_ZN4llvh9StringRefC2EPKc.exit:                    ; preds = %cond.false.i, %cond.true.i
  %cond.i = phi i64 [ %call.i, %cond.true.i ], [ 0, %cond.false.i ]
  store i64 %cond.i, ptr %Length.i, align 8
  %3 = getelementptr inbounds { ptr, i64 }, ptr %agg.tmp2, i32 0, i32 0
  %4 = load ptr, ptr %3, align 8
  %5 = getelementptr inbounds { ptr, i64 }, ptr %agg.tmp2, i32 0, i32 1
  %6 = load i64, ptr %5, align 8
  %call = call ptr @_ZN6hermes5irgen11ESTreeIRGen21genAnonymousLabelNameEN4llvh9StringRefE(ptr noundef nonnull align 8 dereferenceable(200) %this1, ptr %4, i64 %6)
  %coerce.dive = getelementptr inbounds %"class.hermes::Identifier", ptr %agg.tmp, i32 0, i32 0
  store ptr %call, ptr %coerce.dive, align 8
  %coerce.dive3 = getelementptr inbounds %"class.hermes::Identifier", ptr %agg.tmp, i32 0, i32 0
  %7 = load ptr, ptr %coerce.dive3, align 8
  %call4 = call noundef ptr @_ZN6hermes9IRBuilder20createAllocStackInstENS_10IdentifierE(ptr noundef nonnull align 8 dereferenceable(40) %Builder, ptr %7)
  store ptr %call4, ptr %iterStorage, align 8
  %Builder5 = getelementptr inbounds %"class.hermes::irgen::ESTreeIRGen", ptr %this1, i32 0, i32 1
  store ptr %agg.tmp7, ptr %this.addr.i20, align 8
  store ptr @.str.22, ptr %Str.addr.i21, align 8
  %this1.i22 = load ptr, ptr %this.addr.i20, align 8
  %8 = load ptr, ptr %Str.addr.i21, align 8
  store ptr %8, ptr %this1.i22, align 8
  %Length.i23 = getelementptr inbounds %"class.llvh::StringRef", ptr %this1.i22, i32 0, i32 1
  %9 = load ptr, ptr %Str.addr.i21, align 8
  %tobool.i24 = icmp ne ptr %9, null
  br i1 %tobool.i24, label %cond.true.i27, label %cond.false.i25

cond.true.i27:                                    ; preds = %_ZN4llvh9StringRefC2EPKc.exit
  %10 = load ptr, ptr %Str.addr.i21, align 8
  %call.i28 = call i64 @strlen(ptr noundef %10) #11
  br label %_ZN4llvh9StringRefC2EPKc.exit29

cond.false.i25:                                   ; preds = %_ZN4llvh9StringRefC2EPKc.exit
  br label %_ZN4llvh9StringRefC2EPKc.exit29

_ZN4llvh9StringRefC2EPKc.exit29:                  ; preds = %cond.false.i25, %cond.true.i27
  %cond.i26 = phi i64 [ %call.i28, %cond.true.i27 ], [ 0, %cond.false.i25 ]
  store i64 %cond.i26, ptr %Length.i23, align 8
  %11 = getelementptr inbounds { ptr, i64 }, ptr %agg.tmp7, i32 0, i32 0
  %12 = load ptr, ptr %11, align 8
  %13 = getelementptr inbounds { ptr, i64 }, ptr %agg.tmp7, i32 0, i32 1
  %14 = load i64, ptr %13, align 8
  %call8 = call ptr @_ZN6hermes5irgen11ESTreeIRGen21genAnonymousLabelNameEN4llvh9StringRefE(ptr noundef nonnull align 8 dereferenceable(200) %this1, ptr %12, i64 %14)
  %coerce.dive9 = getelementptr inbounds %"class.hermes::Identifier", ptr %agg.tmp6, i32 0, i32 0
  store ptr %call8, ptr %coerce.dive9, align 8
  %coerce.dive10 = getelementptr inbounds %"class.hermes::Identifier", ptr %agg.tmp6, i32 0, i32 0
  %15 = load ptr, ptr %coerce.dive10, align 8
  %call11 = call noundef ptr @_ZN6hermes9IRBuilder20createAllocStackInstENS_10IdentifierE(ptr noundef nonnull align 8 dereferenceable(40) %Builder5, ptr %15)
  store ptr %call11, ptr %sourceOrNext, align 8
  %Builder12 = getelementptr inbounds %"class.hermes::irgen::ESTreeIRGen", ptr %this1, i32 0, i32 1
  %16 = load ptr, ptr %obj.addr, align 8
  %17 = load ptr, ptr %sourceOrNext, align 8
  %call13 = call noundef ptr @_ZN6hermes9IRBuilder20createStoreStackInstEPNS_5ValueEPNS_14AllocStackInstE(ptr noundef nonnull align 8 dereferenceable(40) %Builder12, ptr noundef %16, ptr noundef %17)
  %Builder14 = getelementptr inbounds %"class.hermes::irgen::ESTreeIRGen", ptr %this1, i32 0, i32 1
  %18 = load ptr, ptr %sourceOrNext, align 8
  %call15 = call noundef ptr @_ZN6hermes9IRBuilder23createIteratorBeginInstEPNS_14AllocStackInstE(ptr noundef nonnull align 8 dereferenceable(40) %Builder14, ptr noundef %18)
  store ptr %call15, ptr %iter, align 8
  %Builder16 = getelementptr inbounds %"class.hermes::irgen::ESTreeIRGen", ptr %this1, i32 0, i32 1
  %19 = load ptr, ptr %iter, align 8
  %20 = icmp eq ptr %19, null
  br i1 %20, label %cast.end, label %cast.notnull

cast.notnull:                                     ; preds = %_ZN4llvh9StringRefC2EPKc.exit29
  %add.ptr = getelementptr inbounds i8, ptr %19, i64 16
  br label %cast.end

cast.end:                                         ; preds = %cast.notnull, %_ZN4llvh9StringRefC2EPKc.exit29
  %cast.result = phi ptr [ %add.ptr, %cast.notnull ], [ null, %_ZN4llvh9StringRefC2EPKc.exit29 ]
  %21 = load ptr, ptr %iterStorage, align 8
  %call17 = call noundef ptr @_ZN6hermes9IRBuilder20createStoreStackInstEPNS_5ValueEPNS_14AllocStackInstE(ptr noundef nonnull align 8 dereferenceable(40) %Builder16, ptr noundef %cast.result, ptr noundef %21)
  %iterStorage18 = getelementptr inbounds %"struct.hermes::irgen::ESTreeIRGen::IteratorRecord", ptr %retval, i32 0, i32 0
  %22 = load ptr, ptr %iterStorage, align 8
  store ptr %22, ptr %iterStorage18, align 8
  %sourceOrNext19 = getelementptr inbounds %"struct.hermes::irgen::ESTreeIRGen::IteratorRecord", ptr %retval, i32 0, i32 1
  %23 = load ptr, ptr %sourceOrNext, align 8
  store ptr %23, ptr %sourceOrNext19, align 8
  %24 = load { ptr, ptr }, ptr %retval, align 8
  ret { ptr, ptr } %24
}