; Function Attrs: mustprogress nounwind uwtable
define hidden { ptr, ptr } @_ZN6hermes5irgen11ESTreeIRGen15emitGetIteratorEPNS_5ValueE(ptr noundef nonnull align 8 dereferenceable(200) %this, ptr noundef %obj) local_unnamed_addr #0 align 2 {
entry:
  %Builder = getelementptr inbounds i8, ptr %this, i64 8
  %functionContext_.i.i = getelementptr inbounds i8, ptr %this, i64 80
  %0 = load ptr, ptr %functionContext_.i.i, align 8
  %call2.i = tail call ptr @_ZN6hermes5irgen15FunctionContext21genAnonymousLabelNameEN4llvh9StringRefE(ptr noundef nonnull align 8 dereferenceable(480) %0, ptr nonnull @.str.21, i64 4) #15
  %call4 = tail call noundef ptr @_ZN6hermes9IRBuilder20createAllocStackInstENS_10IdentifierE(ptr noundef nonnull align 8 dereferenceable(40) %Builder, ptr %call2.i) #15
  %1 = load ptr, ptr %functionContext_.i.i, align 8
  %call2.i9 = tail call ptr @_ZN6hermes5irgen15FunctionContext21genAnonymousLabelNameEN4llvh9StringRefE(ptr noundef nonnull align 8 dereferenceable(480) %1, ptr nonnull @.str.22, i64 12) #15
  %call11 = tail call noundef ptr @_ZN6hermes9IRBuilder20createAllocStackInstENS_10IdentifierE(ptr noundef nonnull align 8 dereferenceable(40) %Builder, ptr %call2.i9) #15
  %call13 = tail call noundef ptr @_ZN6hermes9IRBuilder20createStoreStackInstEPNS_5ValueEPNS_14AllocStackInstE(ptr noundef nonnull align 8 dereferenceable(40) %Builder, ptr noundef %obj, ptr noundef %call11) #15
  %call15 = tail call noundef ptr @_ZN6hermes9IRBuilder23createIteratorBeginInstEPNS_14AllocStackInstE(ptr noundef nonnull align 8 dereferenceable(40) %Builder, ptr noundef %call11) #15
  %2 = icmp eq ptr %call15, null
  %add.ptr = getelementptr inbounds i8, ptr %call15, i64 16
  %spec.select = select i1 %2, ptr null, ptr %add.ptr
  %call17 = tail call noundef ptr @_ZN6hermes9IRBuilder20createStoreStackInstEPNS_5ValueEPNS_14AllocStackInstE(ptr noundef nonnull align 8 dereferenceable(40) %Builder, ptr noundef %spec.select, ptr noundef %call4) #15
  %.fca.0.insert = insertvalue { ptr, ptr } poison, ptr %call4, 0
  %.fca.1.insert = insertvalue { ptr, ptr } %.fca.0.insert, ptr %call11, 1
  ret { ptr, ptr } %.fca.1.insert
}